target datalayout = "e-m:e-p270:32:32-p271:32:32-p272:64:64-i64:64-i128:128-f80:128-n8:16:32:64-S128"
target triple = "x86_64-pc-linux-gnu"

@H5_libinit_g = external global i8, align 1
@H5_libterm_g = external global i8, align 1
@H5T_NATIVE_UCHAR_g = external global i64, align 8
@.str = private unnamed_addr constant [6 x i8] c"CLASS\00", align 1
@.str.1 = private unnamed_addr constant [6 x i8] c"IMAGE\00", align 1
@.str.2 = private unnamed_addr constant [14 x i8] c"IMAGE_VERSION\00", align 1
@.str.3 = private unnamed_addr constant [4 x i8] c"1.2\00", align 1
@.str.4 = private unnamed_addr constant [15 x i8] c"IMAGE_SUBCLASS\00", align 1
@.str.6 = private unnamed_addr constant [16 x i8] c"INTERLACE_PIXEL\00", align 1
@.str.7 = private unnamed_addr constant [16 x i8] c"INTERLACE_PLANE\00", align 1
@.str.8 = private unnamed_addr constant [16 x i8] c"IMAGE_TRUECOLOR\00", align 1
@.str.9 = private unnamed_addr constant [15 x i8] c"INTERLACE_MODE\00", align 1

; Function Attrs: nounwind uwtable
define i32 @H5IMmake_image_24bit(i64 noundef %0, ptr noundef %1, i64 noundef %2, i64 noundef %3, ptr noundef %4, ptr noundef %5) #0 {
  %7 = alloca i32, align 4
  %8 = alloca i64, align 8
  %9 = alloca ptr, align 8
  %10 = alloca i64, align 8
  %11 = alloca i64, align 8
  %12 = alloca ptr, align 8
  %13 = alloca ptr, align 8
  %14 = alloca [3 x i64], align 16
  %15 = alloca i32, align 4
  store i64 %0, ptr %8, align 8, !tbaa !3
  store ptr %1, ptr %9, align 8, !tbaa !7
  store i64 %2, ptr %10, align 8, !tbaa !3
  store i64 %3, ptr %11, align 8, !tbaa !3
  store ptr %4, ptr %12, align 8, !tbaa !7
  store ptr %5, ptr %13, align 8, !tbaa !7
  call void @llvm.lifetime.start.p0(i64 24, ptr %14) #7
  %16 = load ptr, ptr %12, align 8, !tbaa !7
  %17 = icmp eq ptr %16, null
  br i1 %17, label %18, label %19

18:                                               ; preds = %6
  store i32 -1, ptr %7, align 4
  store i32 1, ptr %15, align 4
  br label %98

19:                                               ; preds = %6
  %20 = load ptr, ptr %9, align 8, !tbaa !7
  %21 = icmp eq ptr %20, null
  br i1 %21, label %22, label %23

22:                                               ; preds = %19
  store i32 -1, ptr %7, align 4
  store i32 1, ptr %15, align 4
  br label %98

23:                                               ; preds = %19
  %24 = load ptr, ptr %12, align 8, !tbaa !7
  %25 = call i32 @strncmp(ptr noundef %24, ptr noundef @.str.6, i64 noundef 15) #8
  %26 = icmp eq i32 %25, 0
  br i1 %26, label %27, label %33

27:                                               ; preds = %23
  %28 = load i64, ptr %11, align 8, !tbaa !3
  %29 = getelementptr inbounds [3 x i64], ptr %14, i64 0, i64 0
  store i64 %28, ptr %29, align 16, !tbaa !3
  %30 = load i64, ptr %10, align 8, !tbaa !3
  %31 = getelementptr inbounds [3 x i64], ptr %14, i64 0, i64 1
  store i64 %30, ptr %31, align 8, !tbaa !3
  %32 = getelementptr inbounds [3 x i64], ptr %14, i64 0, i64 2
  store i64 3, ptr %32, align 16, !tbaa !3
  br label %45

33:                                               ; preds = %23
  %34 = load ptr, ptr %12, align 8, !tbaa !7
  %35 = call i32 @strncmp(ptr noundef %34, ptr noundef @.str.7, i64 noundef 15) #8
  %36 = icmp eq i32 %35, 0
  br i1 %36, label %37, label %43

37:                                               ; preds = %33
  %38 = getelementptr inbounds [3 x i64], ptr %14, i64 0, i64 0
  store i64 3, ptr %38, align 16, !tbaa !3
  %39 = load i64, ptr %11, align 8, !tbaa !3
  %40 = getelementptr inbounds [3 x i64], ptr %14, i64 0, i64 1
  store i64 %39, ptr %40, align 8, !tbaa !3
  %41 = load i64, ptr %10, align 8, !tbaa !3
  %42 = getelementptr inbounds [3 x i64], ptr %14, i64 0, i64 2
  store i64 %41, ptr %42, align 16, !tbaa !3
  br label %44

43:                                               ; preds = %33
  store i32 -1, ptr %7, align 4
  store i32 1, ptr %15, align 4
  br label %98

44:                                               ; preds = %37
  br label %45

45:                                               ; preds = %44, %27
  %46 = load i64, ptr %8, align 8, !tbaa !3
  %47 = load ptr, ptr %9, align 8, !tbaa !7
  %48 = getelementptr inbounds [3 x i64], ptr %14, i64 0, i64 0
  %49 = load i8, ptr @H5_libinit_g, align 1, !tbaa !10, !range !12, !noundef !13
  %50 = trunc i8 %49 to i1
  br i1 %50, label %55, label %51

51:                                               ; preds = %45
  %52 = load i8, ptr @H5_libterm_g, align 1, !tbaa !10, !range !12, !noundef !13
  %53 = trunc i8 %52 to i1
  %54 = xor i1 %53, true
  br label %55

55:                                               ; preds = %51, %45
  %56 = phi i1 [ false, %45 ], [ %54, %51 ]
  %57 = xor i1 %56, true
  %58 = xor i1 %57, true
  %59 = zext i1 %58 to i32
  %60 = sext i32 %59 to i64
  %61 = call i64 @llvm.expect.i64(i64 %60, i64 0)
  %62 = icmp ne i64 %61, 0
  br i1 %62, label %63, label %65

63:                                               ; preds = %55
  %64 = call i32 @H5open()
  br label %66

65:                                               ; preds = %55
  br label %66

66:                                               ; preds = %65, %63
  %67 = load i64, ptr @H5T_NATIVE_UCHAR_g, align 8, !tbaa !3
  %68 = load ptr, ptr %13, align 8, !tbaa !7
  %69 = call i32 @H5LTmake_dataset(i64 noundef %46, ptr noundef %47, i32 noundef 3, ptr noundef %48, i64 noundef %67, ptr noundef %68)
  %70 = icmp slt i32 %69, 0
  br i1 %70, label %71, label %72

71:                                               ; preds = %66
  store i32 -1, ptr %7, align 4
  store i32 1, ptr %15, align 4
  br label %98

72:                                               ; preds = %66
  %73 = load i64, ptr %8, align 8, !tbaa !3
  %74 = load ptr, ptr %9, align 8, !tbaa !7
  %75 = call i32 @H5LTset_attribute_string(i64 noundef %73, ptr noundef %74, ptr noundef @.str, ptr noundef @.str.1)
  %76 = icmp slt i32 %75, 0
  br i1 %76, label %77, label %78

77:                                               ; preds = %72
  store i32 -1, ptr %7, align 4
  store i32 1, ptr %15, align 4
  br label %98

78:                                               ; preds = %72
  %79 = load i64, ptr %8, align 8, !tbaa !3
  %80 = load ptr, ptr %9, align 8, !tbaa !7
  %81 = call i32 @H5LTset_attribute_string(i64 noundef %79, ptr noundef %80, ptr noundef @.str.2, ptr noundef @.str.3)
  %82 = icmp slt i32 %81, 0
  br i1 %82, label %83, label %84

83:                                               ; preds = %78
  store i32 -1, ptr %7, align 4
  store i32 1, ptr %15, align 4
  br label %98

84:                                               ; preds = %78
  %85 = load i64, ptr %8, align 8, !tbaa !3
  %86 = load ptr, ptr %9, align 8, !tbaa !7
  %87 = call i32 @H5LTset_attribute_string(i64 noundef %85, ptr noundef %86, ptr noundef @.str.4, ptr noundef @.str.8)
  %88 = icmp slt i32 %87, 0
  br i1 %88, label %89, label %90

89:                                               ; preds = %84
  store i32 -1, ptr %7, align 4
  store i32 1, ptr %15, align 4
  br label %98

90:                                               ; preds = %84
  %91 = load i64, ptr %8, align 8, !tbaa !3
  %92 = load ptr, ptr %9, align 8, !tbaa !7
  %93 = load ptr, ptr %12, align 8, !tbaa !7
  %94 = call i32 @H5LTset_attribute_string(i64 noundef %91, ptr noundef %92, ptr noundef @.str.9, ptr noundef %93)
  %95 = icmp slt i32 %94, 0
  br i1 %95, label %96, label %97

96:                                               ; preds = %90
  store i32 -1, ptr %7, align 4
  store i32 1, ptr %15, align 4
  br label %98

97:                                               ; preds = %90
  store i32 0, ptr %7, align 4
  store i32 1, ptr %15, align 4
  br label %98

98:                                               ; preds = %97, %96, %89, %83, %77, %71, %43, %22, %18
  call void @llvm.lifetime.end.p0(i64 24, ptr %14) #7
  %99 = load i32, ptr %7, align 4
  ret i32 %99
}