; Function Attrs: nounwind uwtable
define range(i32 -1, 1) i32 @H5IMmake_image_24bit(i64 noundef %0, ptr noundef %1, i64 noundef %2, i64 noundef %3, ptr noundef %4, ptr noundef %5) local_unnamed_addr #0 {
  %7 = alloca [3 x i64], align 16
  call void @llvm.lifetime.start.p0(i64 24, ptr nonnull %7) #8
  %8 = icmp eq ptr %4, null
  %9 = icmp eq ptr %1, null
  %or.cond = or i1 %9, %8
  br i1 %or.cond, label %41, label %10

10:                                               ; preds = %6
  %11 = tail call i32 @strncmp(ptr noundef nonnull dereferenceable(1) %4, ptr noundef nonnull dereferenceable(16) @.str.6, i64 noundef 15) #9
  %12 = icmp eq i32 %11, 0
  br i1 %12, label %16, label %13

13:                                               ; preds = %10
  %14 = tail call i32 @strncmp(ptr noundef nonnull dereferenceable(1) %4, ptr noundef nonnull dereferenceable(16) @.str.7, i64 noundef 15) #9
  %15 = icmp eq i32 %14, 0
  br i1 %15, label %16, label %41

16:                                               ; preds = %13, %10
  %.sink25 = phi i64 [ %3, %10 ], [ 3, %13 ]
  %.sink23 = phi i64 [ %2, %10 ], [ %3, %13 ]
  %.sink = phi i64 [ 3, %10 ], [ %2, %13 ]
  store i64 %.sink25, ptr %7, align 16, !tbaa !3
  %17 = getelementptr inbounds nuw i8, ptr %7, i64 8
  store i64 %.sink23, ptr %17, align 8, !tbaa !3
  %18 = getelementptr inbounds nuw i8, ptr %7, i64 16
  store i64 %.sink, ptr %18, align 16, !tbaa !3
  %19 = load i8, ptr @H5_libinit_g, align 1, !tbaa !7, !range !9, !noundef !10
  %20 = trunc nuw i8 %19 to i1
  %21 = load i8, ptr @H5_libterm_g, align 1, !range !9
  %22 = trunc nuw i8 %21 to i1
  %23 = select i1 %20, i1 true, i1 %22
  br i1 %23, label %26, label %24, !prof !11

24:                                               ; preds = %16
  %25 = tail call i32 @H5open() #8
  br label %26

26:                                               ; preds = %16, %24
  %27 = load i64, ptr @H5T_NATIVE_UCHAR_g, align 8, !tbaa !3
  %28 = call i32 @H5LTmake_dataset(i64 noundef %0, ptr noundef nonnull %1, i32 noundef 3, ptr noundef nonnull %7, i64 noundef %27, ptr noundef %5) #8
  %29 = icmp slt i32 %28, 0
  br i1 %29, label %41, label %30

30:                                               ; preds = %26
  %31 = call i32 @H5LTset_attribute_string(i64 noundef %0, ptr noundef nonnull %1, ptr noundef nonnull @.str, ptr noundef nonnull @.str.1) #8
  %32 = icmp slt i32 %31, 0
  br i1 %32, label %41, label %33

33:                                               ; preds = %30
  %34 = call i32 @H5LTset_attribute_string(i64 noundef %0, ptr noundef nonnull %1, ptr noundef nonnull @.str.2, ptr noundef nonnull @.str.3) #8
  %35 = icmp slt i32 %34, 0
  br i1 %35, label %41, label %36

36:                                               ; preds = %33
  %37 = call i32 @H5LTset_attribute_string(i64 noundef %0, ptr noundef nonnull %1, ptr noundef nonnull @.str.4, ptr noundef nonnull @.str.8) #8
  %38 = icmp slt i32 %37, 0
  br i1 %38, label %41, label %39

39:                                               ; preds = %36
  %40 = call i32 @H5LTset_attribute_string(i64 noundef %0, ptr noundef nonnull %1, ptr noundef nonnull @.str.9, ptr noundef nonnull %4) #8
  %.lobit = ashr i32 %40, 31
  br label %41

41:                                               ; preds = %39, %36, %33, %30, %26, %13, %6
  %.0 = phi i32 [ -1, %6 ], [ -1, %13 ], [ -1, %26 ], [ -1, %30 ], [ -1, %33 ], [ -1, %36 ], [ %.lobit, %39 ]
  call void @llvm.lifetime.end.p0(i64 24, ptr nonnull %7) #8
  ret i32 %.0
}